target datalayout = "e-m:e-p270:32:32-p271:32:32-p272:64:64-i64:64-i128:128-f80:128-n8:16:32:64-S128"
target triple = "x86_64-pc-linux-gnu"

%"class.zxing::BitArray" = type { %"class.zxing::Counted.base", i32, %"class.zxing::ArrayRef", %"class.zxing::ArrayRef.0", %"class.zxing::ArrayRef.0" }
%"class.zxing::Counted.base" = type <{ ptr, i32 }>
%"class.zxing::ArrayRef" = type { %"class.zxing::Counted.base", ptr }
%"class.zxing::ArrayRef.0" = type { %"class.zxing::Counted.base", ptr }
%"class.zxing::Array.4" = type { %"class.zxing::Counted.base", %"class.std::vector.5" }
%"class.std::vector.5" = type { %"struct.std::_Vector_base.6" }
%"struct.std::_Vector_base.6" = type { %"struct.std::_Vector_base<int, std::allocator<int>>::_Vector_impl" }
%"struct.std::_Vector_base<int, std::allocator<int>>::_Vector_impl" = type { %"struct.std::_Vector_base<int, std::allocator<int>>::_Vector_impl_data" }
%"struct.std::_Vector_base<int, std::allocator<int>>::_Vector_impl_data" = type { ptr, ptr, ptr }

; Function Attrs: mustprogress nounwind uwtable
define linkonce_odr hidden noundef nonnull align 4 dereferenceable(4) ptr @_ZNSt6vectorIiSaIiEEixEm(ptr noundef nonnull align 8 dereferenceable(24) %0, i64 noundef %1) #1 comdat align 2 {
  %3 = alloca ptr, align 8
  %4 = alloca i64, align 8
  store ptr %0, ptr %3, align 8, !tbaa !48
  store i64 %1, ptr %4, align 8, !tbaa !56
  %5 = load ptr, ptr %3, align 8
  %6 = getelementptr inbounds nuw %"struct.std::_Vector_base.6", ptr %5, i32 0, i32 0
  %7 = getelementptr inbounds nuw %"struct.std::_Vector_base<int, std::allocator<int>>::_Vector_impl_data", ptr %6, i32 0, i32 0
  %8 = load ptr, ptr %7, align 8, !tbaa !55
  %9 = load i64, ptr %4, align 8, !tbaa !56
  %10 = getelementptr inbounds nuw i32, ptr %8, i64 %9
  ret ptr %10
}

; Function Attrs: mustprogress nounwind uwtable
define linkonce_odr hidden noundef nonnull align 4 dereferenceable(4) ptr @_ZN5zxing5ArrayIiEixEi(ptr noundef nonnull align 8 dereferenceable(40) %0, i32 noundef %1) #1 comdat align 2 {
  %3 = alloca ptr, align 8
  %4 = alloca i32, align 4
  store ptr %0, ptr %3, align 8, !tbaa !47
  store i32 %1, ptr %4, align 4, !tbaa !8
  %5 = load ptr, ptr %3, align 8
  %6 = getelementptr inbounds nuw %"class.zxing::Array.4", ptr %5, i32 0, i32 1
  %7 = load i32, ptr %4, align 4, !tbaa !8
  %8 = sext i32 %7 to i64
  %9 = call noundef nonnull align 4 dereferenceable(4) ptr @_ZNSt6vectorIiSaIiEEixEm(ptr noundef nonnull align 8 dereferenceable(24) %6, i64 noundef %8) #12
  ret ptr %9
}

; Function Attrs: mustprogress uwtable
define linkonce_odr hidden noundef nonnull align 4 dereferenceable(4) ptr @_ZN5zxing8ArrayRefIiEixEi(ptr noundef nonnull align 8 dereferenceable(24) %0, i32 noundef %1) #0 comdat align 2 {
  %3 = alloca ptr, align 8
  %4 = alloca i32, align 4
  store ptr %0, ptr %3, align 8, !tbaa !25
  store i32 %1, ptr %4, align 4, !tbaa !8
  %5 = load ptr, ptr %3, align 8
  %6 = getelementptr inbounds nuw %"class.zxing::ArrayRef.0", ptr %5, i32 0, i32 1
  %7 = load ptr, ptr %6, align 8, !tbaa !27
  %8 = load i32, ptr %4, align 4, !tbaa !8
  %9 = call noundef nonnull align 4 dereferenceable(4) ptr @_ZN5zxing5ArrayIiEixEi(ptr noundef nonnull align 8 dereferenceable(40) %7, i32 noundef %8)
  ret ptr %9
}

; Function Attrs: mustprogress uwtable
define hidden noundef i32 @_ZN5zxing8BitArray10getNextSetEi(ptr noundef nonnull align 8 dereferenceable(88) %0, i32 noundef %1) #0 align 2 {
  %3 = alloca i32, align 4
  %4 = alloca ptr, align 8
  %5 = alloca i32, align 4
  store ptr %0, ptr %4, align 8, !tbaa !3
  store i32 %1, ptr %5, align 4, !tbaa !8
  %6 = load ptr, ptr %4, align 8
  %7 = load i32, ptr %5, align 4, !tbaa !8
  %8 = getelementptr inbounds nuw %"class.zxing::BitArray", ptr %6, i32 0, i32 1
  %9 = load i32, ptr %8, align 4, !tbaa !12
  %10 = icmp sge i32 %7, %9
  br i1 %10, label %11, label %14

11:                                               ; preds = %2
  %12 = getelementptr inbounds nuw %"class.zxing::BitArray", ptr %6, i32 0, i32 1
  %13 = load i32, ptr %12, align 4, !tbaa !12
  store i32 %13, ptr %3, align 4
  br label %19

14:                                               ; preds = %2
  %15 = getelementptr inbounds nuw %"class.zxing::BitArray", ptr %6, i32 0, i32 3
  %16 = load i32, ptr %5, align 4, !tbaa !8
  %17 = call noundef nonnull align 4 dereferenceable(4) ptr @_ZN5zxing8ArrayRefIiEixEi(ptr noundef nonnull align 8 dereferenceable(24) %15, i32 noundef %16)
  %18 = load i32, ptr %17, align 4, !tbaa !8
  store i32 %18, ptr %3, align 4
  br label %19

19:                                               ; preds = %14, %11
  %20 = load i32, ptr %3, align 4
  ret i32 %20
}